; Function Attrs: nounwind uwtable
define internal i32 @test_des_ofb() #0 {
  %1 = alloca %struct.DES_ks, align 4
  call void @llvm.lifetime.start.p0(i64 128, ptr nonnull %1) #6
  %2 = call i32 @DES_set_key_checked(ptr noundef nonnull @ofb_key, ptr noundef nonnull %1) #6
  store i64 -1167088091436534766, ptr @ofb_tmp, align 8
  call void @DES_ofb_encrypt(ptr noundef nonnull @plain, ptr noundef nonnull @ofb_buf1, i32 noundef 64, i64 noundef 3, ptr noundef nonnull %1, ptr noundef nonnull @ofb_tmp) #6
  %3 = call i32 @test_mem_eq(ptr noundef nonnull @.str.24, i32 noundef 622, ptr noundef nonnull @.str.52, ptr noundef nonnull @.str.53, ptr noundef nonnull @ofb_cipher, i64 noundef 24, ptr noundef nonnull @ofb_buf1, i64 noundef 24) #6
  %.not = icmp eq i32 %3, 0
  br i1 %.not, label %6, label %4

4:                                                ; preds = %0
  store i64 -1167088091436534766, ptr @ofb_tmp, align 8
  call void @DES_ofb_encrypt(ptr noundef nonnull @ofb_buf1, ptr noundef nonnull @ofb_buf2, i32 noundef 64, i64 noundef 3, ptr noundef nonnull %1, ptr noundef nonnull @ofb_tmp) #6
  %5 = call i32 @test_mem_eq(ptr noundef nonnull @.str.24, i32 noundef 628, ptr noundef nonnull @.str.48, ptr noundef nonnull @.str.54, ptr noundef nonnull @plain, i64 noundef 24, ptr noundef nonnull @ofb_buf2, i64 noundef 24) #6
  br label %6

6:                                                ; preds = %0, %4
  %.0 = phi i32 [ %5, %4 ], [ 0, %0 ]
  call void @llvm.lifetime.end.p0(i64 128, ptr nonnull %1) #6
  ret i32 %.0
}